; Function Attrs: mustprogress nounwind uwtable
define internal void @_ZN12_GLOBAL__N_140LinearSearchTest_linear_searchConst_TestD0Ev(ptr noundef nonnull align 8 dereferenceable(40) %this) unnamed_addr #7 align 2 personality ptr @__gxx_personality_v0 {
entry:
  store ptr getelementptr inbounds ({ [8 x ptr] }, ptr @_ZTVN12_GLOBAL__N_116LinearSearchTestE, i64 0, i32 0, i64 2), ptr %this, align 8
  %container_.i.i = getelementptr inbounds i8, ptr %this, i64 16
  %0 = load ptr, ptr %container_.i.i, align 8
  %tobool.not.i.i.i.i.i = icmp eq ptr %0, null
  br i1 %tobool.not.i.i.i.i.i, label %_ZN12_GLOBAL__N_140LinearSearchTest_linear_searchConst_TestD2Ev.exit, label %if.then.i.i.i.i.i

if.then.i.i.i.i.i:                                ; preds = %entry
  tail call void @_ZdlPv(ptr noundef nonnull %0) #15
  br label %_ZN12_GLOBAL__N_140LinearSearchTest_linear_searchConst_TestD2Ev.exit

_ZN12_GLOBAL__N_140LinearSearchTest_linear_searchConst_TestD2Ev.exit: ; preds = %entry, %if.then.i.i.i.i.i
  tail call void @_ZN7testing4TestD2Ev(ptr noundef nonnull align 8 dereferenceable(16) %this) #14
  tail call void @_ZdlPv(ptr noundef nonnull %this) #15
  ret void
}